; Function Attrs: mustprogress uwtable
define hidden void @_ZN4lean14update_bindingERKNS_4exprES2_S2_(ptr dead_on_unwind noalias writable writeonly sret(%"class.lean::expr") align 8 captures(none) initializes((0, 8)) %0, ptr noundef nonnull readonly align 8 captures(none) dereferenceable(8) %1, ptr noundef nonnull readonly align 8 captures(none) dereferenceable(8) %2, ptr noundef nonnull readonly align 8 captures(none) dereferenceable(8) %3) local_unnamed_addr #0 {
  %5 = load ptr, ptr %1, align 8, !tbaa !10
  %6 = getelementptr inbounds nuw i8, ptr %5, i64 16
  %7 = load ptr, ptr %6, align 8, !tbaa !10
  %8 = load ptr, ptr %2, align 8, !tbaa !10
  %9 = icmp eq ptr %7, %8
  br i1 %9, label %10, label %15

10:                                               ; preds = %4
  %11 = getelementptr inbounds nuw i8, ptr %5, i64 24
  %12 = load ptr, ptr %11, align 8, !tbaa !10
  %13 = load ptr, ptr %3, align 8, !tbaa !10
  %14 = icmp eq ptr %12, %13
  br i1 %14, label %32, label %15

15:                                               ; preds = %10, %4
  %16 = getelementptr i8, ptr %5, i64 4
  %.val.i.i.i = load i32, ptr %16, align 4
  %17 = getelementptr inbounds nuw i8, ptr %5, i64 8
  %18 = ptrtoint ptr %5 to i64
  %19 = and i64 %18, 1
  %.not.i.i.i = icmp eq i64 %19, 0
  br i1 %.not.i.i.i, label %20, label %_ZN4lean12binding_infoERKNS_4exprE.exit

20:                                               ; preds = %15
  %.val.i.i.i.i = load i32, ptr %5, align 4, !tbaa !21
  %21 = icmp sgt i32 %.val.i.i.i.i, 0
  br i1 %21, label %22, label %24, !prof !24

22:                                               ; preds = %20
  %23 = add nuw nsw i32 %.val.i.i.i.i, 1
  store i32 %23, ptr %5, align 4, !tbaa !21
  br label %_ZN4lean12binding_infoERKNS_4exprE.exit

24:                                               ; preds = %20
  %.not.i.i.i.i = icmp eq i32 %.val.i.i.i.i, 0
  br i1 %.not.i.i.i.i, label %_ZN4lean12binding_infoERKNS_4exprE.exit, label %25

25:                                               ; preds = %24
  tail call void @lean_inc_ref_cold(ptr noundef nonnull %5)
  %.pre.i.i = load ptr, ptr %1, align 8, !tbaa !10
  br label %_ZN4lean12binding_infoERKNS_4exprE.exit

_ZN4lean12binding_infoERKNS_4exprE.exit:          ; preds = %15, %22, %24, %25
  %26 = phi ptr [ %5, %15 ], [ %5, %22 ], [ %5, %24 ], [ %.pre.i.i, %25 ]
  %27 = tail call zeroext i8 @lean_expr_binder_info(ptr noundef %26)
  %28 = zext i8 %27 to i32
  %.mask = and i32 %.val.i.i.i, -16777216
  %29 = icmp eq i32 %.mask, 117440512
  br i1 %29, label %30, label %31

30:                                               ; preds = %_ZN4lean12binding_infoERKNS_4exprE.exit
  tail call void @_ZN4lean5mk_piERKNS_4nameERKNS_4exprES5_NS_11binder_infoE(ptr dead_on_unwind writable sret(%"class.lean::expr") align 8 %0, ptr noundef nonnull align 8 dereferenceable(8) %17, ptr noundef nonnull align 8 dereferenceable(8) %2, ptr noundef nonnull align 8 dereferenceable(8) %3, i32 noundef %28)
  br label %_ZN4lean10mk_bindingENS_9expr_kindERKNS_4nameERKNS_4exprES6_NS_11binder_infoE.exit

31:                                               ; preds = %_ZN4lean12binding_infoERKNS_4exprE.exit
  tail call void @_ZN4lean9mk_lambdaERKNS_4nameERKNS_4exprES5_NS_11binder_infoE(ptr dead_on_unwind writable sret(%"class.lean::expr") align 8 %0, ptr noundef nonnull align 8 dereferenceable(8) %17, ptr noundef nonnull align 8 dereferenceable(8) %2, ptr noundef nonnull align 8 dereferenceable(8) %3, i32 noundef %28)
  br label %_ZN4lean10mk_bindingENS_9expr_kindERKNS_4nameERKNS_4exprES6_NS_11binder_infoE.exit

32:                                               ; preds = %10
  store ptr %5, ptr %0, align 8, !tbaa !10
  %33 = ptrtoint ptr %5 to i64
  %34 = and i64 %33, 1
  %.not.i.i.i10 = icmp eq i64 %34, 0
  br i1 %.not.i.i.i10, label %35, label %_ZN4lean10mk_bindingENS_9expr_kindERKNS_4nameERKNS_4exprES6_NS_11binder_infoE.exit

35:                                               ; preds = %32
  %.val.i.i.i.i11 = load i32, ptr %5, align 4, !tbaa !21
  %36 = icmp sgt i32 %.val.i.i.i.i11, 0
  br i1 %36, label %37, label %39, !prof !24

37:                                               ; preds = %35
  %38 = add nuw nsw i32 %.val.i.i.i.i11, 1
  store i32 %38, ptr %5, align 4, !tbaa !21
  br label %_ZN4lean10mk_bindingENS_9expr_kindERKNS_4nameERKNS_4exprES6_NS_11binder_infoE.exit

39:                                               ; preds = %35
  %.not.i.i.i.i12 = icmp eq i32 %.val.i.i.i.i11, 0
  br i1 %.not.i.i.i.i12, label %_ZN4lean10mk_bindingENS_9expr_kindERKNS_4nameERKNS_4exprES6_NS_11binder_infoE.exit, label %40

40:                                               ; preds = %39
  tail call void @lean_inc_ref_cold(ptr noundef nonnull %5)
  br label %_ZN4lean10mk_bindingENS_9expr_kindERKNS_4nameERKNS_4exprES6_NS_11binder_infoE.exit

_ZN4lean10mk_bindingENS_9expr_kindERKNS_4nameERKNS_4exprES6_NS_11binder_infoE.exit: ; preds = %40, %39, %37, %32, %31, %30
  ret void
}